target datalayout = "e-m:e-p270:32:32-p271:32:32-p272:64:64-i64:64-i128:128-f80:128-n8:16:32:64-S128"
target triple = "x86_64-pc-linux-gnu"

%struct.LargeObjectDesc = type { i32, ptr, i32, i64, i32 }

@.str = private unnamed_addr constant [45 x i8] c"invalid flags for opening a large object: %d\00", align 1
@.str.1 = private unnamed_addr constant [10 x i8] c"inv_api.c\00", align 1
@__func__.inv_open = private unnamed_addr constant [9 x i8] c"inv_open\00", align 1
@.str.2 = private unnamed_addr constant [31 x i8] c"large object %u does not exist\00", align 1
@lo_compat_privileges = dso_local global i8 0, align 1
@.str.3 = private unnamed_addr constant [38 x i8] c"permission denied for large object %u\00", align 1

; Function Attrs: nounwind uwtable
define dso_local ptr @inv_open(i32 noundef %0, i32 noundef %1, ptr noundef %2) #0 {
  %4 = alloca i32, align 4
  %5 = alloca i32, align 4
  %6 = alloca ptr, align 8
  %7 = alloca ptr, align 8
  %8 = alloca ptr, align 8
  %9 = alloca i32, align 4
  store i32 %0, ptr %4, align 4
  store i32 %1, ptr %5, align 4
  store ptr %2, ptr %6, align 8
  call void @llvm.lifetime.start.p0(i64 8, ptr %7) #7
  call void @llvm.lifetime.start.p0(i64 8, ptr %8) #7
  store ptr null, ptr %8, align 8
  call void @llvm.lifetime.start.p0(i64 4, ptr %9) #7
  store i32 0, ptr %9, align 4
  %10 = load i32, ptr %5, align 4
  %11 = and i32 %10, 131072
  %12 = icmp ne i32 %11, 0
  br i1 %12, label %13, label %16

13:                                               ; preds = %3
  %14 = load i32, ptr %9, align 4
  %15 = or i32 %14, 3
  store i32 %15, ptr %9, align 4
  br label %16

16:                                               ; preds = %13, %3
  %17 = load i32, ptr %5, align 4
  %18 = and i32 %17, 262144
  %19 = icmp ne i32 %18, 0
  br i1 %19, label %20, label %23

20:                                               ; preds = %16
  %21 = load i32, ptr %9, align 4
  %22 = or i32 %21, 1
  store i32 %22, ptr %9, align 4
  br label %23

23:                                               ; preds = %20, %16
  %24 = load i32, ptr %9, align 4
  %25 = icmp eq i32 %24, 0
  br i1 %25, label %26, label %39

26:                                               ; preds = %23
  br label %27

27:                                               ; preds = %26
  br i1 true, label %28, label %30

28:                                               ; preds = %27
  %29 = call zeroext i1 @errstart_cold(i32 noundef 21, ptr noundef null) #8
  br i1 %29, label %32, label %36

30:                                               ; preds = %27
  %31 = call zeroext i1 @errstart(i32 noundef 21, ptr noundef null)
  br i1 %31, label %32, label %36

32:                                               ; preds = %30, %28
  %33 = call i32 @errcode(i32 noundef 50856066)
  %34 = load i32, ptr %5, align 4
  %35 = call i32 (ptr, ...) @errmsg(ptr noundef @.str, i32 noundef %34)
  call void @errfinish(ptr noundef @.str.1, i32 noundef 235, ptr noundef @__func__.inv_open)
  br label %36

36:                                               ; preds = %32, %30, %28
  unreachable

37:                                               ; No predecessors!
  br label %38

38:                                               ; preds = %37
  br label %39

39:                                               ; preds = %38, %23
  %40 = load i32, ptr %9, align 4
  %41 = and i32 %40, 2
  %42 = icmp ne i32 %41, 0
  br i1 %42, label %43, label %44

43:                                               ; preds = %39
  store ptr null, ptr %8, align 8
  br label %46

44:                                               ; preds = %39
  %45 = call ptr @GetActiveSnapshot()
  store ptr %45, ptr %8, align 8
  br label %46

46:                                               ; preds = %44, %43
  %47 = load i32, ptr %4, align 4
  %48 = load ptr, ptr %8, align 8
  %49 = call zeroext i1 @LargeObjectExistsWithSnapshot(i32 noundef %47, ptr noundef %48)
  br i1 %49, label %63, label %50

50:                                               ; preds = %46
  br label %51

51:                                               ; preds = %50
  br i1 true, label %52, label %54

52:                                               ; preds = %51
  %53 = call zeroext i1 @errstart_cold(i32 noundef 21, ptr noundef null) #8
  br i1 %53, label %56, label %60

54:                                               ; preds = %51
  %55 = call zeroext i1 @errstart(i32 noundef 21, ptr noundef null)
  br i1 %55, label %56, label %60

56:                                               ; preds = %54, %52
  %57 = call i32 @errcode(i32 noundef 67137668)
  %58 = load i32, ptr %4, align 4
  %59 = call i32 (ptr, ...) @errmsg(ptr noundef @.str.2, i32 noundef %58)
  call void @errfinish(ptr noundef @.str.1, i32 noundef 247, ptr noundef @__func__.inv_open)
  br label %60

60:                                               ; preds = %56, %54, %52
  unreachable

61:                                               ; No predecessors!
  br label %62

62:                                               ; preds = %61
  br label %63

63:                                               ; preds = %62, %46
  %64 = load i32, ptr %9, align 4
  %65 = and i32 %64, 1
  %66 = icmp ne i32 %65, 0
  br i1 %66, label %67, label %90

67:                                               ; preds = %63
  %68 = load i8, ptr @lo_compat_privileges, align 1, !range !4, !noundef !5
  %69 = trunc i8 %68 to i1
  br i1 %69, label %89, label %70

70:                                               ; preds = %67
  %71 = load i32, ptr %4, align 4
  %72 = call i32 @GetUserId()
  %73 = load ptr, ptr %8, align 8
  %74 = call i32 @pg_largeobject_aclcheck_snapshot(i32 noundef %71, i32 noundef %72, i64 noundef 2, ptr noundef %73)
  %75 = icmp ne i32 %74, 0
  br i1 %75, label %76, label %89

76:                                               ; preds = %70
  br label %77

77:                                               ; preds = %76
  br i1 true, label %78, label %80

78:                                               ; preds = %77
  %79 = call zeroext i1 @errstart_cold(i32 noundef 21, ptr noundef null) #8
  br i1 %79, label %82, label %86

80:                                               ; preds = %77
  %81 = call zeroext i1 @errstart(i32 noundef 21, ptr noundef null)
  br i1 %81, label %82, label %86

82:                                               ; preds = %80, %78
  %83 = call i32 @errcode(i32 noundef 16797828)
  %84 = load i32, ptr %4, align 4
  %85 = call i32 (ptr, ...) @errmsg(ptr noundef @.str.3, i32 noundef %84)
  call void @errfinish(ptr noundef @.str.1, i32 noundef 260, ptr noundef @__func__.inv_open)
  br label %86

86:                                               ; preds = %82, %80, %78
  unreachable

87:                                               ; No predecessors!
  br label %88

88:                                               ; preds = %87
  br label %89

89:                                               ; preds = %88, %70, %67
  br label %90

90:                                               ; preds = %89, %63
  %91 = load i32, ptr %9, align 4
  %92 = and i32 %91, 2
  %93 = icmp ne i32 %92, 0
  br i1 %93, label %94, label %117

94:                                               ; preds = %90
  %95 = load i8, ptr @lo_compat_privileges, align 1, !range !4, !noundef !5
  %96 = trunc i8 %95 to i1
  br i1 %96, label %116, label %97

97:                                               ; preds = %94
  %98 = load i32, ptr %4, align 4
  %99 = call i32 @GetUserId()
  %100 = load ptr, ptr %8, align 8
  %101 = call i32 @pg_largeobject_aclcheck_snapshot(i32 noundef %98, i32 noundef %99, i64 noundef 4, ptr noundef %100)
  %102 = icmp ne i32 %101, 0
  br i1 %102, label %103, label %116

103:                                              ; preds = %97
  br label %104

104:                                              ; preds = %103
  br i1 true, label %105, label %107

105:                                              ; preds = %104
  %106 = call zeroext i1 @errstart_cold(i32 noundef 21, ptr noundef null) #8
  br i1 %106, label %109, label %113

107:                                              ; preds = %104
  %108 = call zeroext i1 @errstart(i32 noundef 21, ptr noundef null)
  br i1 %108, label %109, label %113

109:                                              ; preds = %107, %105
  %110 = call i32 @errcode(i32 noundef 16797828)
  %111 = load i32, ptr %4, align 4
  %112 = call i32 (ptr, ...) @errmsg(ptr noundef @.str.3, i32 noundef %111)
  call void @errfinish(ptr noundef @.str.1, i32 noundef 272, ptr noundef @__func__.inv_open)
  br label %113

113:                                              ; preds = %109, %107, %105
  unreachable

114:                                              ; No predecessors!
  br label %115

115:                                              ; preds = %114
  br label %116

116:                                              ; preds = %115, %97, %94
  br label %117

117:                                              ; preds = %116, %90
  %118 = load ptr, ptr %6, align 8
  %119 = call ptr @MemoryContextAlloc(ptr noundef %118, i64 noundef 40)
  store ptr %119, ptr %7, align 8
  %120 = load i32, ptr %4, align 4
  %121 = load ptr, ptr %7, align 8
  %122 = getelementptr inbounds nuw %struct.LargeObjectDesc, ptr %121, i32 0, i32 0
  store i32 %120, ptr %122, align 8
  %123 = load ptr, ptr %7, align 8
  %124 = getelementptr inbounds nuw %struct.LargeObjectDesc, ptr %123, i32 0, i32 3
  store i64 0, ptr %124, align 8
  %125 = load i32, ptr %9, align 4
  %126 = load ptr, ptr %7, align 8
  %127 = getelementptr inbounds nuw %struct.LargeObjectDesc, ptr %126, i32 0, i32 4
  store i32 %125, ptr %127, align 8
  %128 = load ptr, ptr %7, align 8
  %129 = getelementptr inbounds nuw %struct.LargeObjectDesc, ptr %128, i32 0, i32 2
  store i32 0, ptr %129, align 8
  %130 = load ptr, ptr %8, align 8
  %131 = load ptr, ptr %7, align 8
  %132 = getelementptr inbounds nuw %struct.LargeObjectDesc, ptr %131, i32 0, i32 1
  store ptr %130, ptr %132, align 8
  %133 = load ptr, ptr %7, align 8
  call void @llvm.lifetime.end.p0(i64 4, ptr %9) #7
  call void @llvm.lifetime.end.p0(i64 8, ptr %8) #7
  call void @llvm.lifetime.end.p0(i64 8, ptr %7) #7
  ret ptr %133
}