; Function Attrs: nounwind uwtable
define dso_local noundef ptr @inv_open(i32 noundef %0, i32 noundef %1, ptr noundef %2) local_unnamed_addr #0 {
  %4 = and i32 %1, 131072
  %.not = icmp eq i32 %4, 0
  %spec.select = select i1 %.not, i32 0, i32 3
  %5 = lshr i32 %1, 18
  %6 = and i32 %5, 1
  %.1 = or i32 %spec.select, %6
  %7 = icmp eq i32 %.1, 0
  br i1 %7, label %8, label %12

8:                                                ; preds = %3
  %9 = tail call zeroext i1 @errstart_cold(i32 noundef 21, ptr noundef null) #10
  tail call void @llvm.assume(i1 %9)
  %10 = tail call i32 @errcode(i32 noundef 50856066) #9
  %11 = tail call i32 (ptr, ...) @errmsg(ptr noundef nonnull @.str, i32 noundef %1) #9
  tail call void @errfinish(ptr noundef nonnull @.str.1, i32 noundef 235, ptr noundef nonnull @__func__.inv_open) #9
  unreachable

12:                                               ; preds = %3
  br i1 %.not, label %13, label %15

13:                                               ; preds = %12
  %14 = tail call ptr @GetActiveSnapshot() #9
  br label %15

15:                                               ; preds = %12, %13
  %.027 = phi ptr [ %14, %13 ], [ null, %12 ]
  %16 = tail call zeroext i1 @LargeObjectExistsWithSnapshot(i32 noundef %0, ptr noundef %.027) #9
  br i1 %16, label %21, label %17

17:                                               ; preds = %15
  %18 = tail call zeroext i1 @errstart_cold(i32 noundef 21, ptr noundef null) #10
  tail call void @llvm.assume(i1 %18)
  %19 = tail call i32 @errcode(i32 noundef 67137668) #9
  %20 = tail call i32 (ptr, ...) @errmsg(ptr noundef nonnull @.str.2, i32 noundef %0) #9
  tail call void @errfinish(ptr noundef nonnull @.str.1, i32 noundef 247, ptr noundef nonnull @__func__.inv_open) #9
  unreachable

21:                                               ; preds = %15
  %22 = and i32 %.1, 1
  %.not30 = icmp eq i32 %22, 0
  br i1 %.not30, label %33, label %23

23:                                               ; preds = %21
  %24 = load i8, ptr @lo_compat_privileges, align 1, !range !4, !noundef !5
  %25 = trunc nuw i8 %24 to i1
  br i1 %25, label %33, label %26

26:                                               ; preds = %23
  %27 = tail call i32 @GetUserId() #9
  %28 = tail call i32 @pg_largeobject_aclcheck_snapshot(i32 noundef %0, i32 noundef %27, i64 noundef 2, ptr noundef %.027) #9
  %.not31 = icmp eq i32 %28, 0
  br i1 %.not31, label %33, label %29

29:                                               ; preds = %26
  %30 = tail call zeroext i1 @errstart_cold(i32 noundef 21, ptr noundef null) #10
  tail call void @llvm.assume(i1 %30)
  %31 = tail call i32 @errcode(i32 noundef 16797828) #9
  %32 = tail call i32 (ptr, ...) @errmsg(ptr noundef nonnull @.str.3, i32 noundef %0) #9
  tail call void @errfinish(ptr noundef nonnull @.str.1, i32 noundef 260, ptr noundef nonnull @__func__.inv_open) #9
  unreachable

33:                                               ; preds = %23, %26, %21
  br i1 %.not, label %44, label %34

34:                                               ; preds = %33
  %35 = load i8, ptr @lo_compat_privileges, align 1, !range !4, !noundef !5
  %36 = trunc nuw i8 %35 to i1
  br i1 %36, label %44, label %37

37:                                               ; preds = %34
  %38 = tail call i32 @GetUserId() #9
  %39 = tail call i32 @pg_largeobject_aclcheck_snapshot(i32 noundef %0, i32 noundef %38, i64 noundef 4, ptr noundef %.027) #9
  %.not32 = icmp eq i32 %39, 0
  br i1 %.not32, label %44, label %40

40:                                               ; preds = %37
  %41 = tail call zeroext i1 @errstart_cold(i32 noundef 21, ptr noundef null) #10
  tail call void @llvm.assume(i1 %41)
  %42 = tail call i32 @errcode(i32 noundef 16797828) #9
  %43 = tail call i32 (ptr, ...) @errmsg(ptr noundef nonnull @.str.3, i32 noundef %0) #9
  tail call void @errfinish(ptr noundef nonnull @.str.1, i32 noundef 272, ptr noundef nonnull @__func__.inv_open) #9
  unreachable

44:                                               ; preds = %34, %37, %33
  %45 = tail call ptr @MemoryContextAlloc(ptr noundef %2, i64 noundef 40) #9
  store i32 %0, ptr %45, align 8
  %46 = getelementptr inbounds nuw i8, ptr %45, i64 24
  store i64 0, ptr %46, align 8
  %47 = getelementptr inbounds nuw i8, ptr %45, i64 32
  store i32 %.1, ptr %47, align 8
  %48 = getelementptr inbounds nuw i8, ptr %45, i64 16
  store i32 0, ptr %48, align 8
  %49 = getelementptr inbounds nuw i8, ptr %45, i64 8
  store ptr %.027, ptr %49, align 8
  ret ptr %45
}